; Function Attrs: nounwind uwtable
define internal fastcc i32 @parse_array(ptr noundef captures(address) %0, ptr noundef readonly captures(none) %1) unnamed_addr #1 {
  %3 = getelementptr inbounds nuw i8, ptr %1, i64 24
  %4 = load ptr, ptr %3, align 8
  %5 = getelementptr inbounds nuw i8, ptr %1, i64 32
  %6 = load ptr, ptr %5, align 8
  %.not = icmp eq ptr %4, null
  br i1 %.not, label %10, label %7

7:                                                ; preds = %2
  %8 = load ptr, ptr %1, align 8
  %9 = tail call i32 %4(ptr noundef %8) #16
  %.not39 = icmp eq i32 %9, 0
  br i1 %.not39, label %10, label %.critedge.thread

10:                                               ; preds = %7, %2
  %11 = getelementptr inbounds nuw i8, ptr %0, i64 56
  %12 = load i32, ptr %11, align 8
  %13 = add i32 %12, 1
  store i32 %13, ptr %11, align 8
  %14 = getelementptr i8, ptr %0, i64 52
  %.val.i = load i32, ptr %14, align 4
  %15 = icmp eq i32 %.val.i, 5
  br i1 %15, label %lex_expect.exit, label %16

16:                                               ; preds = %10
  %17 = getelementptr inbounds nuw i8, ptr %0, i64 24
  %18 = load ptr, ptr %17, align 8
  %19 = icmp eq ptr %18, null
  %20 = icmp eq i32 %.val.i, 12
  %or.cond.i = or i1 %20, %19
  %spec.select = select i1 %or.cond.i, i32 11, i32 6
  br label %.critedge.thread

lex_expect.exit:                                  ; preds = %10
  %21 = tail call i32 @json_lex(ptr noundef nonnull %0)
  %22 = icmp eq i32 %21, 0
  br i1 %22, label %23, label %.critedge.thread

23:                                               ; preds = %lex_expect.exit
  %.val46 = load i32, ptr %14, align 4
  %.not40 = icmp eq i32 %.val46, 6
  br i1 %.not40, label %lex_expect.exit50, label %24

24:                                               ; preds = %23
  %25 = tail call fastcc i32 @parse_array_element(ptr noundef nonnull %0, ptr noundef nonnull %1)
  %26 = icmp eq i32 %25, 0
  br i1 %26, label %.lr.ph, label %.critedge.thread

.lr.ph:                                           ; preds = %24, %29
  %.val = load i32, ptr %14, align 4
  switch i32 %.val, label %32 [
    i32 7, label %27
    i32 6, label %lex_expect.exit50
  ]

27:                                               ; preds = %.lr.ph
  %28 = tail call i32 @json_lex(ptr noundef nonnull %0)
  %.not41 = icmp eq i32 %28, 0
  br i1 %.not41, label %29, label %.critedge.thread

29:                                               ; preds = %27
  %30 = tail call fastcc i32 @parse_array_element(ptr noundef nonnull %0, ptr noundef nonnull %1)
  %31 = icmp eq i32 %30, 0
  br i1 %31, label %.lr.ph, label %.critedge.thread, !llvm.loop !18

32:                                               ; preds = %.lr.ph
  %33 = getelementptr inbounds nuw i8, ptr %0, i64 24
  %34 = load ptr, ptr %33, align 8
  %35 = icmp eq ptr %34, null
  %36 = icmp eq i32 %.val, 12
  %or.cond.i48 = or i1 %36, %35
  %spec.select59 = select i1 %or.cond.i48, i32 11, i32 7
  br label %.critedge.thread

lex_expect.exit50:                                ; preds = %.lr.ph, %23
  %37 = tail call i32 @json_lex(ptr noundef nonnull %0)
  %.not43 = icmp eq i32 %37, 0
  br i1 %.not43, label %38, label %.critedge.thread

38:                                               ; preds = %lex_expect.exit50
  %39 = load i32, ptr %11, align 8
  %40 = add i32 %39, -1
  store i32 %40, ptr %11, align 8
  %.not44 = icmp eq ptr %6, null
  br i1 %.not44, label %44, label %41

41:                                               ; preds = %38
  %42 = load ptr, ptr %1, align 8
  %43 = tail call i32 %6(ptr noundef %42) #16
  %.not45 = icmp eq i32 %43, 0
  br i1 %.not45, label %44, label %.critedge.thread

44:                                               ; preds = %41, %38
  br label %.critedge.thread

.critedge.thread:                                 ; preds = %27, %29, %24, %32, %16, %lex_expect.exit, %41, %lex_expect.exit50, %7, %44
  %.030 = phi i32 [ 0, %44 ], [ %9, %7 ], [ %37, %lex_expect.exit50 ], [ %43, %41 ], [ %21, %lex_expect.exit ], [ %spec.select, %16 ], [ %spec.select59, %32 ], [ %25, %24 ], [ %28, %27 ], [ %30, %29 ]
  ret i32 %.030
}